; Function Attrs: mustprogress nounwind uwtable
define internal fastcc void @_ZL15DecodeMemExtendRN4llvm6MCInstEjmPKNS_14MCDisassemblerE(ptr noundef nonnull align 8 dereferenceable(128) %0, i32 noundef %1) unnamed_addr #0 {
  %3 = lshr i32 %1, 1
  %4 = and i32 %3, 1
  %5 = zext nneg i32 %4 to i64
  %6 = getelementptr inbounds nuw i8, ptr %0, i64 16
  %7 = tail call noundef i64 @_ZNK4llvm15SmallVectorBaseIjE4sizeEv(ptr noundef nonnull align 8 dereferenceable(16) %6) #13
  %8 = add i64 %7, 1
  %9 = tail call noundef i64 @_ZNK4llvm15SmallVectorBaseIjE8capacityEv(ptr noundef nonnull align 8 dereferenceable(16) %6) #13
  %.not.i.i.i.i = icmp ugt i64 %8, %9
  br i1 %.not.i.i.i.i, label %10, label %_ZN4llvm6MCInst10addOperandENS_9MCOperandE.exit

10:                                               ; preds = %2
  %11 = getelementptr inbounds nuw i8, ptr %0, i64 32
  tail call void @_ZN4llvm15SmallVectorBaseIjE8grow_podEPvmm(ptr noundef nonnull align 8 dereferenceable(16) %6, ptr noundef nonnull %11, i64 noundef %8, i64 noundef 16) #13
  br label %_ZN4llvm6MCInst10addOperandENS_9MCOperandE.exit

_ZN4llvm6MCInst10addOperandENS_9MCOperandE.exit:  ; preds = %2, %10
  %12 = load ptr, ptr %6, align 8
  %13 = tail call noundef i64 @_ZNK4llvm15SmallVectorBaseIjE4sizeEv(ptr noundef nonnull align 8 dereferenceable(16) %6) #13
  %14 = getelementptr inbounds %"class.llvm::MCOperand", ptr %12, i64 %13
  store i8 2, ptr %14, align 1
  %.sroa.22.0..sroa_idx.i.i = getelementptr inbounds nuw i8, ptr %14, i64 8
  store i64 %5, ptr %.sroa.22.0..sroa_idx.i.i, align 1
  %15 = tail call noundef i64 @_ZNK4llvm15SmallVectorBaseIjE4sizeEv(ptr noundef nonnull align 8 dereferenceable(16) %6) #13
  %16 = add i64 %15, 1
  tail call void @_ZN4llvm15SmallVectorBaseIjE8set_sizeEm(ptr noundef nonnull align 8 dereferenceable(16) %6, i64 noundef %16) #13
  %17 = tail call noundef i64 @_ZNK4llvm15SmallVectorBaseIjE4sizeEv(ptr noundef nonnull align 8 dereferenceable(16) %6) #13
  %18 = add i64 %17, 1
  %19 = tail call noundef i64 @_ZNK4llvm15SmallVectorBaseIjE8capacityEv(ptr noundef nonnull align 8 dereferenceable(16) %6) #13
  %.not.i.i.i.i6 = icmp ugt i64 %18, %19
  br i1 %.not.i.i.i.i6, label %20, label %_ZN4llvm6MCInst10addOperandENS_9MCOperandE.exit8

20:                                               ; preds = %_ZN4llvm6MCInst10addOperandENS_9MCOperandE.exit
  %21 = getelementptr inbounds nuw i8, ptr %0, i64 32
  tail call void @_ZN4llvm15SmallVectorBaseIjE8grow_podEPvmm(ptr noundef nonnull align 8 dereferenceable(16) %6, ptr noundef nonnull %21, i64 noundef %18, i64 noundef 16) #13
  br label %_ZN4llvm6MCInst10addOperandENS_9MCOperandE.exit8

_ZN4llvm6MCInst10addOperandENS_9MCOperandE.exit8: ; preds = %_ZN4llvm6MCInst10addOperandENS_9MCOperandE.exit, %20
  %22 = and i32 %1, 1
  %23 = zext nneg i32 %22 to i64
  %24 = load ptr, ptr %6, align 8
  %25 = tail call noundef i64 @_ZNK4llvm15SmallVectorBaseIjE4sizeEv(ptr noundef nonnull align 8 dereferenceable(16) %6) #13
  %26 = getelementptr inbounds %"class.llvm::MCOperand", ptr %24, i64 %25
  store i8 2, ptr %26, align 1
  %.sroa.22.0..sroa_idx.i.i7 = getelementptr inbounds nuw i8, ptr %26, i64 8
  store i64 %23, ptr %.sroa.22.0..sroa_idx.i.i7, align 1
  %27 = tail call noundef i64 @_ZNK4llvm15SmallVectorBaseIjE4sizeEv(ptr noundef nonnull align 8 dereferenceable(16) %6) #13
  %28 = add i64 %27, 1
  tail call void @_ZN4llvm15SmallVectorBaseIjE8set_sizeEm(ptr noundef nonnull align 8 dereferenceable(16) %6, i64 noundef %28) #13
  ret void
}